
tsunami.o:     file format elf64-x86-64
tsunami.o
architecture: i386:x86-64, flags 0x00000011:
HAS_RELOC, HAS_SYMS
start address 0x0000000000000000

Sections:
Idx Name          Size      VMA               LMA               File off  Algn
  0 .text         00000988  0000000000000000  0000000000000000  00000040  2**0
                  CONTENTS, ALLOC, LOAD, RELOC, READONLY, CODE
  1 .data         00000000  0000000000000000  0000000000000000  000009c8  2**0
                  CONTENTS, ALLOC, LOAD, DATA
  2 .bss          00000000  0000000000000000  0000000000000000  000009c8  2**0
                  ALLOC
  3 .rodata       00000068  0000000000000000  0000000000000000  000009d0  2**4
                  CONTENTS, ALLOC, LOAD, READONLY, DATA
  4 .debug_info   000002a8  0000000000000000  0000000000000000  00000a38  2**0
                  CONTENTS, RELOC, READONLY, DEBUGGING, OCTETS
  5 .debug_abbrev 0000016d  0000000000000000  0000000000000000  00000ce0  2**0
                  CONTENTS, READONLY, DEBUGGING, OCTETS
  6 .debug_aranges 00000030  0000000000000000  0000000000000000  00000e4d  2**0
                  CONTENTS, RELOC, READONLY, DEBUGGING, OCTETS
  7 .debug_macro  00000010  0000000000000000  0000000000000000  00000e7d  2**0
                  CONTENTS, RELOC, READONLY, DEBUGGING, OCTETS
  8 .debug_line   00000121  0000000000000000  0000000000000000  00000e8d  2**0
                  CONTENTS, RELOC, READONLY, DEBUGGING, OCTETS
  9 .debug_str    0000025d  0000000000000000  0000000000000000  00000fae  2**0
                  CONTENTS, READONLY, DEBUGGING, OCTETS
 10 .comment      0000002b  0000000000000000  0000000000000000  0000120b  2**0
                  CONTENTS, READONLY
 11 .note.GNU-stack 00000000  0000000000000000  0000000000000000  00001236  2**0
                  CONTENTS, READONLY
 12 .eh_frame     00000058  0000000000000000  0000000000000000  00001238  2**3
                  CONTENTS, ALLOC, LOAD, RELOC, READONLY, DATA
SYMBOL TABLE:
0000000000000000 l    df *ABS*	0000000000000000 tsunami.f95
0000000000000000 l    d  .text	0000000000000000 .text
0000000000000000 l    d  .data	0000000000000000 .data
0000000000000000 l    d  .bss	0000000000000000 .bss
0000000000000000 l    d  .rodata	0000000000000000 .rodata
0000000000000000 l     F .text	000000000000094b MAIN__
0000000000000040 l     O .rodata	000000000000001c options.27.4024
0000000000000000 l    d  .debug_info	0000000000000000 .debug_info
0000000000000000 l    d  .debug_abbrev	0000000000000000 .debug_abbrev
0000000000000000 l    d  .debug_aranges	0000000000000000 .debug_aranges
0000000000000000 l    d  .debug_macro	0000000000000000 .debug_macro
0000000000000000 l    d  .debug_line	0000000000000000 .debug_line
0000000000000000 l    d  .debug_str	0000000000000000 .debug_str
0000000000000000 l    d  .note.GNU-stack	0000000000000000 .note.GNU-stack
0000000000000000 l    d  .eh_frame	0000000000000000 .eh_frame
0000000000000000 l    d  .comment	0000000000000000 .comment
0000000000000000         *UND*	0000000000000000 _GLOBAL_OFFSET_TABLE_
0000000000000000         *UND*	0000000000000000 _gfortran_st_open
0000000000000000         *UND*	0000000000000000 __mod_initial_MOD_set_gaussian
0000000000000000         *UND*	0000000000000000 _gfortran_st_write
0000000000000000         *UND*	0000000000000000 _gfortran_transfer_integer_write
0000000000000000         *UND*	0000000000000000 _gfortran_transfer_array_write
0000000000000000         *UND*	0000000000000000 _gfortran_st_write_done
0000000000000000         *UND*	0000000000000000 _gfortran_st_close
0000000000000000         *UND*	0000000000000000 __mod_diff_MOD_diff_centered
0000000000000000         *UND*	0000000000000000 _gfortran_st_inquire
000000000000094b g     F .text	000000000000003d main
0000000000000000         *UND*	0000000000000000 _gfortran_set_args
0000000000000000         *UND*	0000000000000000 _gfortran_set_options


Contents of section .text:
 0000 554889e5 4881ecf0 07000048 8d050000  UH..H......H....
 0010 00004889 85a8faff ffc785b0 faffff17  ..H.............
 0020 00000048 8d050000 00004889 85e0faff  ...H......H.....
 0030 ff48c785 d8faffff 08000000 c785d0fb  .H..............
 0040 ffff0000 0000c785 a0faffff 00010001  ................
 0050 c785a4fa ffff0900 0000488d 85a0faff  ..........H.....
 0060 ff4889c7 e8000000 0048c785 c0faffff  .H.......H......
 0070 04000000 48c785b0 faffff00 00000048  ....H..........H
 0080 c785b8fa ffff0000 000048c7 85b0faff  ..........H.....
 0090 ff040000 00c685bc faffff01 c685bdfa  ................
 00a0 ffff0348 c785d0fa ffff0100 000048c7  ...H..........H.
 00b0 85d8faff ff640000 0048c785 c8faffff  .....d...H......
 00c0 01000000 488d8560 feffff48 8985a0fa  ....H..`...H....
 00d0 ffff48c7 85a8faff ffffffff ff488d85  ..H..........H..
 00e0 a0faffff 488d1500 00000048 8d350000  ....H......H.5..
 00f0 00004889 c7e80000 0000488d 95c0fcff  ..H.......H.....
 0100 ffb80000 0000b932 00000048 89d7f348  .......2...H...H
 0110 ab488d05 00000000 488985a8 faffffc7  .H......H.......
 0120 85b0faff ff210000 00c785a0 faffff80  .....!..........
 0130 000000c7 85a4faff ff090000 00488d85  .............H..
 0140 a0faffff 4889c7e8 00000000 488d85a0  ....H.......H...
 0150 faffffba 04000000 488d3500 00000048  ........H.5....H
 0160 89c7e800 00000048 c78530f9 ffff0400  .......H..0.....
 0170 000048c7 8520f9ff ff000000 0048c785  ..H.. .......H..
 0180 28f9ffff 00000000 48c78520 f9ffff04  (.......H.. ....
 0190 000000c6 852cf9ff ff01c685 2df9ffff  .....,......-...
 01a0 0348c785 40f9ffff 01000000 48c78548  .H..@.......H..H
 01b0 f9ffff64 00000048 c78538f9 ffff0100  ...d...H..8.....
 01c0 0000488d 8560feff ff488985 10f9ffff  ..H..`...H......
 01d0 48c78518 f9ffffff ffffff48 8db510f9  H..........H....
 01e0 ffff488d 85a0faff ffb90000 0000ba04  ..H.............
 01f0 00000048 89c7e800 00000048 8d85a0fa  ...H.......H....
 0200 ffff4889 c7e80000 0000488d 05000000  ..H.......H.....
 0210 00488985 a8faffff c785b0fa ffff2200  .H............".
 0220 0000c785 a0faffff 00000000 c785a4fa  ................
 0230 ffff0900 0000488d 85a0faff ff4889c7  ......H......H..
 0240 e8000000 00c7855c feffff01 0000008b  .......\........
 0250 855cfeff ff3d8813 00000f9f c00fb6c0  .\...=..........
 0260 85c00f85 a4060000 48c78530 f8ffff04  ........H..0....
 0270 00000048 c78520f8 ffff0000 000048c7  ...H.. .......H.
 0280 8528f8ff ff000000 0048c785 20f8ffff  .(.......H.. ...
 0290 04000000 c6852cf8 ffff01c6 852df8ff  ......,......-..
 02a0 ff0348c7 8540f8ff ff010000 0048c785  ..H..@.......H..
 02b0 48f8ffff 64000000 48c78538 f8ffff01  H...d...H..8....
 02c0 00000048 8d85c0fc ffff4889 8510f8ff  ...H......H.....
 02d0 ff48c785 18f8ffff ffffffff 488d9510  .H..........H...
 02e0 f8ffff48 c78560f8 ffff0000 000048c7  ...H..`.......H.
 02f0 8568f8ff ff000000 0048c785 60f8ffff  .h.......H..`...
 0300 04000000 c6856cf8 ffff01c6 856df8ff  ......l......m..
 0310 ff0348c7 8578f8ff ff010000 0048c785  ..H..x.......H..
 0320 80f8ffff 00000000 48c78588 f8ffff63  ........H......c
 0330 00000048 c78570f8 ffff0400 0000488d  ...H..p.......H.
 0340 8510f9ff ff488985 50f8ffff 48c78558  .....H..P...H..X
 0350 f8ffff00 00000048 8d8550f8 ffff4889  .......H..P...H.
 0360 d64889c7 e8000000 0048c785 b0f8ffff  .H.......H......
 0370 04000000 48c785a0 f8ffff00 00000048  ....H..........H
 0380 c785a8f8 ffff0000 000048c7 85a0f8ff  ..........H.....
 0390 ff040000 00c685ac f8ffff01 c685adf8  ................
 03a0 ffff0348 c785c0f8 ffff0100 000048c7  ...H..........H.
 03b0 85c8f8ff ff640000 0048c785 b8f8ffff  .....d...H......
 03c0 01000000 488d8560 feffff48 898590f8  ....H..`...H....
 03d0 ffff48c7 8598f8ff ffffffff ff488d95  ..H..........H..
 03e0 90f8ffff 48c785e0 f8ffff00 00000048  ....H..........H
 03f0 c785e8f8 ffff0000 000048c7 85e0f8ff  ..........H.....
 0400 ff040000 00c685ec f8ffff01 c685edf8  ................
 0410 ffff0348 c785f8f8 ffff0100 000048c7  ...H..........H.
 0420 8500f9ff ff000000 0048c785 08f9ffff  .........H......
 0430 63000000 48c785f0 f8ffff04 00000048  c...H..........H
 0440 8d85a0fa ffff4889 85d0f8ff ff48c785  ......H......H..
 0450 d8f8ffff 00000000 488d85d0 f8ffff48  ........H......H
 0460 89d64889 c7e80000 0000b800 00000048  ..H............H
 0470 83f8637f 60f30f10 8485c0fc fffff30f  ..c.`...........
 0480 109485c0 fcffff48 8b9550f8 fffff30f  .......H..P.....
 0490 100c82f3 0f59d148 8b95d0f8 fffff30f  .....Y.H........
 04a0 101c82f3 0f100d00 000000f3 0f59cbf3  .............Y..
 04b0 0f58ca0f 28d1f30f 100d0000 0000f30f  .X..(...........
 04c0 59caf30f 5cc1f30f 118485c0 fcffff48  Y...\..........H
 04d0 83c001eb 9a48c785 a0f8ffff 00000000  .....H..........
 04e0 48c785a8 f8ffff00 00000048 c785a0f8  H..........H....
 04f0 ffff0400 0000c685 acf8ffff 01c685ad  ................
 0500 f8ffff03 48c785b8 f8ffff01 00000048  ....H..........H
 0510 c785c0f8 ffff0000 000048c7 85c8f8ff  ..........H.....
 0520 ff630000 0048c785 b0f8ffff 04000000  .c...H..........
 0530 488d8510 f9ffff48 898590f8 ffff48c7  H......H......H.
 0540 8598f8ff ff000000 00b80000 00004883  ..............H.
 0550 f8637f34 f30f1084 85c0fcff fff30f10  .c.4............
 0560 948560fe fffff30f 100d0000 0000f30f  ..`.............
 0570 58ca488b 9590f8ff fff30f59 c1f30f11  X.H........Y....
 0580 04824883 c001ebc6 488d9590 f8ffff48  ..H.....H......H
 0590 c785e0f8 ffff0000 000048c7 85e8f8ff  ..........H.....
 05a0 ff000000 0048c785 e0f8ffff 04000000  .....H..........
 05b0 c685ecf8 ffff01c6 85edf8ff ff0348c7  ..............H.
 05c0 85f8f8ff ff010000 0048c785 00f9ffff  .........H......
 05d0 00000000 48c78508 f9ffff63 00000048  ....H......c...H
 05e0 c785f0f8 ffff0400 0000488d 85a0faff  ..........H.....
 05f0 ff488985 d0f8ffff 48c785d8 f8ffff00  .H......H.......
 0600 00000048 8d85d0f8 ffff4889 d64889c7  ...H......H..H..
 0610 e8000000 00b80000 00004883 f8637f34  ..........H..c.4
 0620 f30f1084 8560feff ff488b95 d0f8ffff  .....`...H......
 0630 f30f1014 82f30f10 0d000000 00f30f59  ...............Y
 0640 caf30f5c c1f30f11 848560fe ffff4883  ...\......`...H.
 0650 c001ebc6 488d0500 00000048 8985a8fa  ....H......H....
 0660 ffffc785 b0faffff 2b000000 488d0500  ........+...H...
 0670 00000048 898508fb ffff48c7 8510fbff  ...H......H.....
 0680 ff080000 00488d45 fc488985 d0faffff  .....H.E.H......
 0690 c785a0fa ffff8040 0000c785 a4faffff  .......@........
 06a0 00000000 488d85a0 faffff48 89c7e800  ....H......H....
 06b0 0000008b 45fc85c0 0f84ae00 0000488d  ....E.........H.
 06c0 05000000 00488985 a8faffff c785b0fa  .....H..........
 06d0 ffff2d00 0000488d 05000000 00488985  ..-...H......H..
 06e0 e0faffff 48c785d8 faffff08 00000048  ....H..........H
 06f0 8d050000 00004889 85e8faff ff48c785  ......H......H..
 0700 f0faffff 03000000 488d0500 00000048  ........H......H
 0710 898528fb ffff48c7 8530fbff ff060000  ..(...H..0......
 0720 00488d05 00000000 48898540 fbffff48  .H......H..@...H
 0730 c78538fb ffff0500 0000c785 d0fbffff  ..8.............
 0740 00000000 c785a0fa ffff0063 0001c785  ...........c....
 0750 a4faffff 09000000 488d85a0 faffff48  ........H......H
 0760 89c7e800 000000e9 90000000 488d0500  ............H...
 0770 00000048 8985a8fa ffffc785 b0faffff  ...H............
 0780 2f000000 488d0500 00000048 8985e0fa  /...H......H....
 0790 ffff48c7 85d8faff ff080000 00488d05  ..H..........H..
 07a0 00000000 488985e8 faffff48 c785f0fa  ....H......H....
 07b0 ffff0300 0000488d 05000000 00488985  ......H......H..
 07c0 40fbffff 48c78538 fbffff05 000000c7  @...H..8........
 07d0 85d0fbff ff000000 00c785a0 faffff00  ................
 07e0 430001c7 85a4faff ff090000 00488d85  C............H..
 07f0 a0faffff 4889c7e8 00000000 488d0500  ....H.......H...
 0800 00000048 8985a8fa ffffc785 b0faffff  ...H............
 0810 32000000 c785a0fa ffff8000 0000c785  2...............
 0820 a4faffff 09000000 488d85a0 faffff48  ........H......H
 0830 89c7e800 00000048 8d8d5cfe ffff488d  .......H..\...H.
 0840 85a0faff ffba0400 00004889 ce4889c7  ..........H..H..
 0850 e8000000 0048c785 30f9ffff 04000000  .....H..0.......
 0860 48c78520 f9ffff00 00000048 c78528f9  H.. .......H..(.
 0870 ffff0000 000048c7 8520f9ff ff040000  ......H.. ......
 0880 00c6852c f9ffff01 c6852df9 ffff0348  ...,......-....H
 0890 c78540f9 ffff0100 000048c7 8548f9ff  ..@.......H..H..
 08a0 ff640000 0048c785 38f9ffff 01000000  .d...H..8.......
 08b0 488d8560 feffff48 898510f9 ffff48c7  H..`...H......H.
 08c0 8518f9ff ffffffff ff488db5 10f9ffff  .........H......
 08d0 488d85a0 faffffb9 00000000 ba040000  H...............
 08e0 004889c7 e8000000 00488d85 a0faffff  .H.......H......
 08f0 4889c7e8 00000000 8b855cfe ffff83c0  H.........\.....
 0900 0189855c feffffe9 43f9ffff 90488d05  ...\....C....H..
 0910 00000000 488985a8 faffffc7 85b0faff  ....H...........
 0920 ff360000 00c785a0 faffff00 000000c7  .6..............
 0930 85a4faff ff090000 00488d85 a0faffff  .........H......
 0940 4889c7e8 00000000 90c9c355 4889e548  H..........UH..H
 0950 83ec1089 7dfc4889 75f0488b 55f08b45  ....}.H.u.H.U..E
 0960 fc4889d6 89c7e800 00000048 8d350000  .H.........H.5..
 0970 0000bf07 000000e8 00000000 e87ff6ff  ................
 0980 ffb80000 0000c9c3                    ........        
Contents of section .rodata:
 0000 7473756e 616d692e 66393500 64617461  tsunami.f95.data
 0010 2e747874 0ad7a33c 19000000 00000000  .txt...<........
 0020 6f6c6461 7070656e 64777269 74656e65  oldappendwritene
 0030 77000000 00000000 00000000 00000000  w...............
 0040 44080000 ff0f0000 00000000 01000000  D...............
 0050 01000000 00000000 1f000000 cdcc1c41  ...............A
 0060 0ad7a33c 00002041                    ...<.. A        
Contents of section .debug_info:
 0000 a4020000 04000000 00000801 00000000  ................
 0010 0e020000 00000000 00000000 00000000  ................
 0020 00008809 00000000 00000000 00000000  ................
 0030 00000208 05000000 00030804 39000000  ............9...
 0040 05000000 00010102 00000000 00000000  ................
 0050 4b090000 00000000 019c4e01 00000601  K.........N.....
 0060 05570100 00070104 00000000 d9010000  .W..............
 0070 08000000 000113a9 01000004 0ad7a33c  ...............<
 0080 09647400 010da901 0000040a d7a33c09  .dt...........<.
 0090 64780001 0da90100 00040000 803f0967  dx...........?.g
 00a0 00010da9 01000004 cdcc1c41 0a000000  ...........A....
 00b0 00010bc0 01000064 08000000 00010ea9  .......d........
 00c0 01000004 00002041 0a000000 000112c0  ...... A........
 00d0 01000019 0b000000 00010cc0 01000088  ................
 00e0 130c0000 00000115 93020000 02916c0d  ..............l.
 00f0 68000110 9a020000 0391d07c 0d6e0001  h..........|.n..
 0100 09b90100 000391cc 7c0d7500 01109a02  ........|.u.....
 0110 00000391 b0790e00 00000000 00000091  .....y..........
 0120 00000000 00000036 0100000f c0010000  .......6........
 0130 0fa90100 00001000 00000000 0000001b  ................
 0140 00000000 0000000f c0010000 00001100  ................
 0150 00000073 01000012 00000000 011d0000  ...s............
 0160 00001379 01000013 b4010000 13cb0100  ...y............
 0170 00000014 087e0100 00047301 00001502  .....~....s.....
 0180 9706a201 0000a201 0000160b 31972338  ............1.#8
 0190 06972330 061c2209 97232806 97232006  ..#0.."..#(..# .
 01a0 1e000204 04000000 0017a201 00001408  ................
 01b0 b9010000 04ae0100 00020405 00000000  ................
 01c0 17b90100 001408a2 01000004 c5010000  ................
 01d0 11000000 00f00100 00120000 00000126  ...............&
 01e0 00000000 13f00100 00131e02 00000000  ................
 01f0 1408f601 00001502 9706a201 00001802  ................
 0200 00001804 97233006 04972338 06099723  .....#0...#8...#
 0210 28069723 20061e00 14082302 00000418  (..# .....#.....
 0220 02000015 029706a2 01000047 02000016  ...........G....
 0230 0b319723 38069723 30061c22 09972328  .1.#8..#0.."..#(
 0240 06972320 061e0019 00000000 0104b901  ..# ............
 0250 00000000 00000000 00003d00 00000000  ..........=.....
 0260 0000019c 86020000 1a000000 000104c0  ................
 0270 01000002 916c1a00 00000001 04860200  .....l..........
 0280 00039160 06001b08 8c020000 02010800  ...`............
 0290 00000002 04020000 00001ca2 0100001d  ................
 02a0 32000000 e4000000                    2.......        
Contents of section .debug_abbrev:
 0000 01110125 0e130b42 0b030e1b 0e110112  ...%...B........
 0010 07101799 42170000 0224000b 0b3e0b03  ....B....$...>..
 0020 0e000003 0f000b0b 00000437 00491300  ...........7.I..
 0030 00052e01 030e3a0b 3b0b6a19 360b1101  ......:.;.j.6...
 0040 12074018 96421901 13000006 08003a0b  ..@..B........:.
 0050 3b0b1813 00000708 003a0b3b 0b030e18  ;........:.;....
 0060 13000008 2700030e 3a0b3b0b 49131c0a  ....'...:.;.I...
 0070 00000927 0003083a 0b3b0b49 131c0a00  ...'...:.;.I....
 0080 000a2700 030e3a0b 3b0b4913 1c0b0000  ..'...:.;.I.....
 0090 0b270003 0e3a0b3b 0b49131c 0500000c  .'...:.;.I......
 00a0 3400030e 3a0b3b0b 49130218 00000d34  4...:.;.I......4
 00b0 0003083a 0b3b0b49 13021800 000e0b01  ...:.;.I........
 00c0 11011207 01130000 0f270049 13000010  .........'.I....
 00d0 0b011101 12070000 111e0103 0e3c1901  .............<..
 00e0 13000012 2e013f19 030e3a0b 3b0b6e0e  ......?...:.;.n.
 00f0 3c190000 13050049 13000014 10000b0b  <......I........
 0100 49130000 15010150 18491301 13000016  I......P.I......
 0110 21002f18 51180000 17260049 13000018  !./.Q....&.I....
 0120 21002218 2f185118 0000192e 013f1903  !."./.Q......?..
 0130 0e3a0b3b 0b491311 01120740 18964219  .:.;.I.....@..B.
 0140 01130000 1a050003 0e3a0b3b 0b491302  .........:.;.I..
 0150 1800001b 0f000b0b 49130000 1c010149  ........I......I
 0160 1300001d 21004913 2f0d0000 00        ....!.I./....   
Contents of section .debug_aranges:
 0000 2c000000 02000000 00000800 00000000  ,...............
 0010 00000000 00000000 88090000 00000000  ................
 0020 00000000 00000000 00000000 00000000  ................
Contents of section .debug_macro:
 0000 04000200 00000003 00010300 02040400  ................
Contents of section .debug_line:
 0000 1d010000 03008900 00000101 fb0e0d00  ................
 0010 01010101 00000001 0000012f 7573722f  .........../usr/
 0020 6c69622f 6763632f 7838365f 36342d6c  lib/gcc/x86_64-l
 0030 696e7578 2d676e75 2f392f2e 2e2f2e2e  inux-gnu/9/../..
 0040 2f2e2e2f 2e2e2f78 38365f36 342d6c69  /../../x86_64-li
 0050 6e75782d 676e752f 696e636c 7564652f  nux-gnu/include/
 0060 66696e63 6c756465 00007473 756e616d  finclude..tsunam
 0070 692e6639 35000000 006d6174 682d7665  i.f95....math-ve
 0080 63746f72 2d666f72 7472616e 2e680001  ctor-fortran.h..
 0090 00000000 09020000 00000000 00000103  ................
 00a0 16ac025e 18029101 13086902 f9011302  ...^......i.....
 00b0 3b140002 0401069e 06088400 02040306  ;...............
 00c0 02870412 00020402 66060260 13000204  ........f..`....
 00d0 04060279 12000204 03660002 04020234  ...y.....f.....4
 00e0 12000204 07029201 12000204 06660602  .............f..
 00f0 3416025f 13ad0002 040202ae 01140002  4.._............
 0100 04010290 01150002 04010372 02fc0101  ...........r....
 0110 030e083c 24023b14 034c3ce4 022e0001  ...<$.;..L<.....
 0120 01                                   .               
Contents of section .debug_str:
 0000 66696c65 5f657869 73747300 7473756e  file_exists.tsun
 0010 616d6900 6e756d5f 74696d65 5f737465  ami.num_time_ste
 0020 7073006d 61696e00 5f5f6d6f 645f6469  ps.main.__mod_di
 0030 66665f4d 4f445f64 6966665f 63656e74  ff_MOD_diff_cent
 0040 65726564 00696365 6e746572 006c6f67  ered.icenter.log
 0050 6963616c 286b696e 643d3429 00646966  ical(kind=4).dif
 0060 665f6365 6e746572 65640067 7269645f  f_centered.grid_
 0070 73697a65 00696e74 65676572 286b696e  size.integer(kin
 0080 643d3429 00736574 5f676175 73736961  d=4).set_gaussia
 0090 6e006d6f 645f6469 66660047 4e552046  n.mod_diff.GNU F
 00a0 6f727472 616e3230 30382039 2e332e30  ortran2008 9.3.0
 00b0 202d6d74 756e653d 67656e65 72696320   -mtune=generic 
 00c0 2d6d6172 63683d78 38362d36 34202d67  -march=x86-64 -g
 00d0 67646233 202d6669 6e747269 6e736963  gdb3 -fintrinsic
 00e0 2d6d6f64 756c6573 2d706174 68202f75  -modules-path /u
 00f0 73722f6c 69622f67 63632f78 38365f36  sr/lib/gcc/x86_6
 0100 342d6c69 6e75782d 676e752f 392f6669  4-linux-gnu/9/fi
 0110 6e636c75 6465202d 66707265 2d696e63  nclude -fpre-inc
 0120 6c756465 3d2f7573 722f6c69 622f6763  lude=/usr/lib/gc
 0130 632f7838 365f3634 2d6c696e 75782d67  c/x86_64-linux-g
 0140 6e752f39 2f2e2e2f 2e2e2f2e 2e2f2e2e  nu/9/../../../..
 0150 2f783836 5f36342d 6c696e75 782d676e  /x86_64-linux-gn
 0160 752f696e 636c7564 652f6669 6e636c75  u/include/finclu
 0170 64652f6d 6174682d 76656374 6f722d66  de/math-vector-f
 0180 6f727472 616e2e68 00646563 61790063  ortran.h.decay.c
 0190 68617261 63746572 286b696e 643d3129  haracter(kind=1)
 01a0 002f686f 6d652f75 62756e74 752f456e  ./home/ubuntu/En
 01b0 67696e65 6572696e 672f5072 6f677261  gineering/Progra
 01c0 6d6d696e 672f466f 72747261 6e2f4d6f  mming/Fortran/Mo
 01d0 6465726e 5f466f72 7472616e 2f436861  dern_Fortran/Cha
 01e0 70746572 5f342f4c 69737469 6e675f34  pter_4/Listing_4
 01f0 5f313000 61726763 005f5f6d 6f645f69  _10.argc.__mod_i
 0200 6e697469 616c5f4d 4f445f73 65745f67  nitial_MOD_set_g
 0210 61757373 69616e00 7473756e 616d692e  aussian.tsunami.
 0220 66393500 696e7465 67657228 6b696e64  f95.integer(kind
 0230 3d382900 6d6f645f 696e6974 69616c00  =8).mod_initial.
 0240 686d6561 6e006469 66660072 65616c28  hmean.diff.real(
 0250 6b696e64 3d342900 61726776 00        kind=4).argv.   
Contents of section .comment:
 0000 00474343 3a202855 62756e74 7520392e  .GCC: (Ubuntu 9.
 0010 332e302d 31377562 756e7475 317e3230  3.0-17ubuntu1~20
 0020 2e303429 20392e33 2e3000             .04) 9.3.0.     
Contents of section .eh_frame:
 0000 14000000 00000000 017a5200 01781001  .........zR..x..
 0010 1b0c0708 90010000 1c000000 1c000000  ................
 0020 00000000 4b090000 00410e10 8602430d  ....K....A....C.
 0030 06034609 0c070800 1c000000 3c000000  ..F.........<...
 0040 00000000 3d000000 00410e10 8602430d  ....=....A....C.
 0050 06780c07 08000000                    .x......        

Disassembly of section .text:

0000000000000000 <MAIN__>:
program tsunami
   0:	55                   	push   %rbp
   1:	48 89 e5             	mov    %rsp,%rbp
   4:	48 81 ec f0 07 00 00 	sub    $0x7f0,%rsp
    integer(int32), parameter :: icenter = 25
    real(real32), parameter   :: decay = 0.02
    
    logical :: file_exists
    
    open(9, file = 'data.txt')
   b:	48 8d 05 00 00 00 00 	lea    0x0(%rip),%rax        # 12 <MAIN__+0x12>
			e: R_X86_64_PC32	.rodata-0x4
  12:	48 89 85 a8 fa ff ff 	mov    %rax,-0x558(%rbp)
  19:	c7 85 b0 fa ff ff 17 	movl   $0x17,-0x550(%rbp)
  20:	00 00 00 
  23:	48 8d 05 00 00 00 00 	lea    0x0(%rip),%rax        # 2a <MAIN__+0x2a>
			26: R_X86_64_PC32	.rodata+0x8
  2a:	48 89 85 e0 fa ff ff 	mov    %rax,-0x520(%rbp)
  31:	48 c7 85 d8 fa ff ff 	movq   $0x8,-0x528(%rbp)
  38:	08 00 00 00 
  3c:	c7 85 d0 fb ff ff 00 	movl   $0x0,-0x430(%rbp)
  43:	00 00 00 
  46:	c7 85 a0 fa ff ff 00 	movl   $0x1000100,-0x560(%rbp)
  4d:	01 00 01 
  50:	c7 85 a4 fa ff ff 09 	movl   $0x9,-0x55c(%rbp)
  57:	00 00 00 
  5a:	48 8d 85 a0 fa ff ff 	lea    -0x560(%rbp),%rax
  61:	48 89 c7             	mov    %rax,%rdi
  64:	e8 00 00 00 00       	callq  69 <MAIN__+0x69>
			65: R_X86_64_PLT32	_gfortran_st_open-0x4
    
    if (grid_size <= 0) stop 'grid_size must be > 0'
    if (dt <= 0) stop 'time step dt must be > 0'
    if (dx <= 0) stop 'grid spacing dx must be > 0'
    
    call set_gaussian(h, icenter, decay)
  69:	48 c7 85 c0 fa ff ff 	movq   $0x4,-0x540(%rbp)
  70:	04 00 00 00 
  74:	48 c7 85 b0 fa ff ff 	movq   $0x0,-0x550(%rbp)
  7b:	00 00 00 00 
  7f:	48 c7 85 b8 fa ff ff 	movq   $0x0,-0x548(%rbp)
  86:	00 00 00 00 
  8a:	48 c7 85 b0 fa ff ff 	movq   $0x4,-0x550(%rbp)
  91:	04 00 00 00 
  95:	c6 85 bc fa ff ff 01 	movb   $0x1,-0x544(%rbp)
  9c:	c6 85 bd fa ff ff 03 	movb   $0x3,-0x543(%rbp)
  a3:	48 c7 85 d0 fa ff ff 	movq   $0x1,-0x530(%rbp)
  aa:	01 00 00 00 
  ae:	48 c7 85 d8 fa ff ff 	movq   $0x64,-0x528(%rbp)
  b5:	64 00 00 00 
  b9:	48 c7 85 c8 fa ff ff 	movq   $0x1,-0x538(%rbp)
  c0:	01 00 00 00 
  c4:	48 8d 85 60 fe ff ff 	lea    -0x1a0(%rbp),%rax
  cb:	48 89 85 a0 fa ff ff 	mov    %rax,-0x560(%rbp)
  d2:	48 c7 85 a8 fa ff ff 	movq   $0xffffffffffffffff,-0x558(%rbp)
  d9:	ff ff ff ff 
  dd:	48 8d 85 a0 fa ff ff 	lea    -0x560(%rbp),%rax
  e4:	48 8d 15 00 00 00 00 	lea    0x0(%rip),%rdx        # eb <MAIN__+0xeb>
			e7: R_X86_64_PC32	.rodata+0x10
  eb:	48 8d 35 00 00 00 00 	lea    0x0(%rip),%rsi        # f2 <MAIN__+0xf2>
			ee: R_X86_64_PC32	.rodata+0x14
  f2:	48 89 c7             	mov    %rax,%rdi
  f5:	e8 00 00 00 00       	callq  fa <MAIN__+0xfa>
			f6: R_X86_64_PLT32	__mod_initial_MOD_set_gaussian-0x4
    u = 0
  fa:	48 8d 95 c0 fc ff ff 	lea    -0x340(%rbp),%rdx
 101:	b8 00 00 00 00       	mov    $0x0,%eax
 106:	b9 32 00 00 00       	mov    $0x32,%ecx
 10b:	48 89 d7             	mov    %rdx,%rdi
 10e:	f3 48 ab             	rep stos %rax,%es:(%rdi)
    
    !print *, 0, h
    write (9, *) 0, h
 111:	48 8d 05 00 00 00 00 	lea    0x0(%rip),%rax        # 118 <MAIN__+0x118>
			114: R_X86_64_PC32	.rodata-0x4
 118:	48 89 85 a8 fa ff ff 	mov    %rax,-0x558(%rbp)
 11f:	c7 85 b0 fa ff ff 21 	movl   $0x21,-0x550(%rbp)
 126:	00 00 00 
 129:	c7 85 a0 fa ff ff 80 	movl   $0x80,-0x560(%rbp)
 130:	00 00 00 
 133:	c7 85 a4 fa ff ff 09 	movl   $0x9,-0x55c(%rbp)
 13a:	00 00 00 
 13d:	48 8d 85 a0 fa ff ff 	lea    -0x560(%rbp),%rax
 144:	48 89 c7             	mov    %rax,%rdi
 147:	e8 00 00 00 00       	callq  14c <MAIN__+0x14c>
			148: R_X86_64_PLT32	_gfortran_st_write-0x4
 14c:	48 8d 85 a0 fa ff ff 	lea    -0x560(%rbp),%rax
 153:	ba 04 00 00 00       	mov    $0x4,%edx
 158:	48 8d 35 00 00 00 00 	lea    0x0(%rip),%rsi        # 15f <MAIN__+0x15f>
			15b: R_X86_64_PC32	.rodata+0x18
 15f:	48 89 c7             	mov    %rax,%rdi
 162:	e8 00 00 00 00       	callq  167 <MAIN__+0x167>
			163: R_X86_64_PLT32	_gfortran_transfer_integer_write-0x4
 167:	48 c7 85 30 f9 ff ff 	movq   $0x4,-0x6d0(%rbp)
 16e:	04 00 00 00 
 172:	48 c7 85 20 f9 ff ff 	movq   $0x0,-0x6e0(%rbp)
 179:	00 00 00 00 
 17d:	48 c7 85 28 f9 ff ff 	movq   $0x0,-0x6d8(%rbp)
 184:	00 00 00 00 
 188:	48 c7 85 20 f9 ff ff 	movq   $0x4,-0x6e0(%rbp)
 18f:	04 00 00 00 
 193:	c6 85 2c f9 ff ff 01 	movb   $0x1,-0x6d4(%rbp)
 19a:	c6 85 2d f9 ff ff 03 	movb   $0x3,-0x6d3(%rbp)
 1a1:	48 c7 85 40 f9 ff ff 	movq   $0x1,-0x6c0(%rbp)
 1a8:	01 00 00 00 
 1ac:	48 c7 85 48 f9 ff ff 	movq   $0x64,-0x6b8(%rbp)
 1b3:	64 00 00 00 
 1b7:	48 c7 85 38 f9 ff ff 	movq   $0x1,-0x6c8(%rbp)
 1be:	01 00 00 00 
 1c2:	48 8d 85 60 fe ff ff 	lea    -0x1a0(%rbp),%rax
 1c9:	48 89 85 10 f9 ff ff 	mov    %rax,-0x6f0(%rbp)
 1d0:	48 c7 85 18 f9 ff ff 	movq   $0xffffffffffffffff,-0x6e8(%rbp)
 1d7:	ff ff ff ff 
 1db:	48 8d b5 10 f9 ff ff 	lea    -0x6f0(%rbp),%rsi
 1e2:	48 8d 85 a0 fa ff ff 	lea    -0x560(%rbp),%rax
 1e9:	b9 00 00 00 00       	mov    $0x0,%ecx
 1ee:	ba 04 00 00 00       	mov    $0x4,%edx
 1f3:	48 89 c7             	mov    %rax,%rdi
 1f6:	e8 00 00 00 00       	callq  1fb <MAIN__+0x1fb>
			1f7: R_X86_64_PLT32	_gfortran_transfer_array_write-0x4
 1fb:	48 8d 85 a0 fa ff ff 	lea    -0x560(%rbp),%rax
 202:	48 89 c7             	mov    %rax,%rdi
 205:	e8 00 00 00 00       	callq  20a <MAIN__+0x20a>
			206: R_X86_64_PLT32	_gfortran_st_write_done-0x4
    close(9)
 20a:	48 8d 05 00 00 00 00 	lea    0x0(%rip),%rax        # 211 <MAIN__+0x211>
			20d: R_X86_64_PC32	.rodata-0x4
 211:	48 89 85 a8 fa ff ff 	mov    %rax,-0x558(%rbp)
 218:	c7 85 b0 fa ff ff 22 	movl   $0x22,-0x550(%rbp)
 21f:	00 00 00 
 222:	c7 85 a0 fa ff ff 00 	movl   $0x0,-0x560(%rbp)
 229:	00 00 00 
 22c:	c7 85 a4 fa ff ff 09 	movl   $0x9,-0x55c(%rbp)
 233:	00 00 00 
 236:	48 8d 85 a0 fa ff ff 	lea    -0x560(%rbp),%rax
 23d:	48 89 c7             	mov    %rax,%rdi
 240:	e8 00 00 00 00       	callq  245 <MAIN__+0x245>
			241: R_X86_64_PLT32	_gfortran_st_close-0x4
    
    time_loop: do n = 1, num_time_steps
 245:	c7 85 5c fe ff ff 01 	movl   $0x1,-0x1a4(%rbp)
 24c:	00 00 00 
 24f:	8b 85 5c fe ff ff    	mov    -0x1a4(%rbp),%eax
 255:	3d 88 13 00 00       	cmp    $0x1388,%eax
 25a:	0f 9f c0             	setg   %al
 25d:	0f b6 c0             	movzbl %al,%eax
 260:	85 c0                	test   %eax,%eax
 262:	0f 85 a4 06 00 00    	jne    90c <MAIN__+0x90c>
        
        u = u - (u * diff(u) + g * diff(h)) / dx * dt
 268:	48 c7 85 30 f8 ff ff 	movq   $0x4,-0x7d0(%rbp)
 26f:	04 00 00 00 
 273:	48 c7 85 20 f8 ff ff 	movq   $0x0,-0x7e0(%rbp)
 27a:	00 00 00 00 
 27e:	48 c7 85 28 f8 ff ff 	movq   $0x0,-0x7d8(%rbp)
 285:	00 00 00 00 
 289:	48 c7 85 20 f8 ff ff 	movq   $0x4,-0x7e0(%rbp)
 290:	04 00 00 00 
 294:	c6 85 2c f8 ff ff 01 	movb   $0x1,-0x7d4(%rbp)
 29b:	c6 85 2d f8 ff ff 03 	movb   $0x3,-0x7d3(%rbp)
 2a2:	48 c7 85 40 f8 ff ff 	movq   $0x1,-0x7c0(%rbp)
 2a9:	01 00 00 00 
 2ad:	48 c7 85 48 f8 ff ff 	movq   $0x64,-0x7b8(%rbp)
 2b4:	64 00 00 00 
 2b8:	48 c7 85 38 f8 ff ff 	movq   $0x1,-0x7c8(%rbp)
 2bf:	01 00 00 00 
 2c3:	48 8d 85 c0 fc ff ff 	lea    -0x340(%rbp),%rax
 2ca:	48 89 85 10 f8 ff ff 	mov    %rax,-0x7f0(%rbp)
 2d1:	48 c7 85 18 f8 ff ff 	movq   $0xffffffffffffffff,-0x7e8(%rbp)
 2d8:	ff ff ff ff 
 2dc:	48 8d 95 10 f8 ff ff 	lea    -0x7f0(%rbp),%rdx
 2e3:	48 c7 85 60 f8 ff ff 	movq   $0x0,-0x7a0(%rbp)
 2ea:	00 00 00 00 
 2ee:	48 c7 85 68 f8 ff ff 	movq   $0x0,-0x798(%rbp)
 2f5:	00 00 00 00 
 2f9:	48 c7 85 60 f8 ff ff 	movq   $0x4,-0x7a0(%rbp)
 300:	04 00 00 00 
 304:	c6 85 6c f8 ff ff 01 	movb   $0x1,-0x794(%rbp)
 30b:	c6 85 6d f8 ff ff 03 	movb   $0x3,-0x793(%rbp)
 312:	48 c7 85 78 f8 ff ff 	movq   $0x1,-0x788(%rbp)
 319:	01 00 00 00 
 31d:	48 c7 85 80 f8 ff ff 	movq   $0x0,-0x780(%rbp)
 324:	00 00 00 00 
 328:	48 c7 85 88 f8 ff ff 	movq   $0x63,-0x778(%rbp)
 32f:	63 00 00 00 
 333:	48 c7 85 70 f8 ff ff 	movq   $0x4,-0x790(%rbp)
 33a:	04 00 00 00 
 33e:	48 8d 85 10 f9 ff ff 	lea    -0x6f0(%rbp),%rax
 345:	48 89 85 50 f8 ff ff 	mov    %rax,-0x7b0(%rbp)
 34c:	48 c7 85 58 f8 ff ff 	movq   $0x0,-0x7a8(%rbp)
 353:	00 00 00 00 
 357:	48 8d 85 50 f8 ff ff 	lea    -0x7b0(%rbp),%rax
 35e:	48 89 d6             	mov    %rdx,%rsi
 361:	48 89 c7             	mov    %rax,%rdi
 364:	e8 00 00 00 00       	callq  369 <MAIN__+0x369>
			365: R_X86_64_PLT32	__mod_diff_MOD_diff_centered-0x4
 369:	48 c7 85 b0 f8 ff ff 	movq   $0x4,-0x750(%rbp)
 370:	04 00 00 00 
 374:	48 c7 85 a0 f8 ff ff 	movq   $0x0,-0x760(%rbp)
 37b:	00 00 00 00 
 37f:	48 c7 85 a8 f8 ff ff 	movq   $0x0,-0x758(%rbp)
 386:	00 00 00 00 
 38a:	48 c7 85 a0 f8 ff ff 	movq   $0x4,-0x760(%rbp)
 391:	04 00 00 00 
 395:	c6 85 ac f8 ff ff 01 	movb   $0x1,-0x754(%rbp)
 39c:	c6 85 ad f8 ff ff 03 	movb   $0x3,-0x753(%rbp)
 3a3:	48 c7 85 c0 f8 ff ff 	movq   $0x1,-0x740(%rbp)
 3aa:	01 00 00 00 
 3ae:	48 c7 85 c8 f8 ff ff 	movq   $0x64,-0x738(%rbp)
 3b5:	64 00 00 00 
 3b9:	48 c7 85 b8 f8 ff ff 	movq   $0x1,-0x748(%rbp)
 3c0:	01 00 00 00 
 3c4:	48 8d 85 60 fe ff ff 	lea    -0x1a0(%rbp),%rax
 3cb:	48 89 85 90 f8 ff ff 	mov    %rax,-0x770(%rbp)
 3d2:	48 c7 85 98 f8 ff ff 	movq   $0xffffffffffffffff,-0x768(%rbp)
 3d9:	ff ff ff ff 
 3dd:	48 8d 95 90 f8 ff ff 	lea    -0x770(%rbp),%rdx
 3e4:	48 c7 85 e0 f8 ff ff 	movq   $0x0,-0x720(%rbp)
 3eb:	00 00 00 00 
 3ef:	48 c7 85 e8 f8 ff ff 	movq   $0x0,-0x718(%rbp)
 3f6:	00 00 00 00 
 3fa:	48 c7 85 e0 f8 ff ff 	movq   $0x4,-0x720(%rbp)
 401:	04 00 00 00 
 405:	c6 85 ec f8 ff ff 01 	movb   $0x1,-0x714(%rbp)
 40c:	c6 85 ed f8 ff ff 03 	movb   $0x3,-0x713(%rbp)
 413:	48 c7 85 f8 f8 ff ff 	movq   $0x1,-0x708(%rbp)
 41a:	01 00 00 00 
 41e:	48 c7 85 00 f9 ff ff 	movq   $0x0,-0x700(%rbp)
 425:	00 00 00 00 
 429:	48 c7 85 08 f9 ff ff 	movq   $0x63,-0x6f8(%rbp)
 430:	63 00 00 00 
 434:	48 c7 85 f0 f8 ff ff 	movq   $0x4,-0x710(%rbp)
 43b:	04 00 00 00 
 43f:	48 8d 85 a0 fa ff ff 	lea    -0x560(%rbp),%rax
 446:	48 89 85 d0 f8 ff ff 	mov    %rax,-0x730(%rbp)
 44d:	48 c7 85 d8 f8 ff ff 	movq   $0x0,-0x728(%rbp)
 454:	00 00 00 00 
 458:	48 8d 85 d0 f8 ff ff 	lea    -0x730(%rbp),%rax
 45f:	48 89 d6             	mov    %rdx,%rsi
 462:	48 89 c7             	mov    %rax,%rdi
 465:	e8 00 00 00 00       	callq  46a <MAIN__+0x46a>
			466: R_X86_64_PLT32	__mod_diff_MOD_diff_centered-0x4
 46a:	b8 00 00 00 00       	mov    $0x0,%eax
 46f:	48 83 f8 63          	cmp    $0x63,%rax
 473:	7f 60                	jg     4d5 <MAIN__+0x4d5>
 475:	f3 0f 10 84 85 c0 fc 	movss  -0x340(%rbp,%rax,4),%xmm0
 47c:	ff ff 
 47e:	f3 0f 10 94 85 c0 fc 	movss  -0x340(%rbp,%rax,4),%xmm2
 485:	ff ff 
 487:	48 8b 95 50 f8 ff ff 	mov    -0x7b0(%rbp),%rdx
 48e:	f3 0f 10 0c 82       	movss  (%rdx,%rax,4),%xmm1
 493:	f3 0f 59 d1          	mulss  %xmm1,%xmm2
 497:	48 8b 95 d0 f8 ff ff 	mov    -0x730(%rbp),%rdx
 49e:	f3 0f 10 1c 82       	movss  (%rdx,%rax,4),%xmm3
 4a3:	f3 0f 10 0d 00 00 00 	movss  0x0(%rip),%xmm1        # 4ab <MAIN__+0x4ab>
 4aa:	00 
			4a7: R_X86_64_PC32	.rodata+0x58
 4ab:	f3 0f 59 cb          	mulss  %xmm3,%xmm1
 4af:	f3 0f 58 ca          	addss  %xmm2,%xmm1
 4b3:	0f 28 d1             	movaps %xmm1,%xmm2
 4b6:	f3 0f 10 0d 00 00 00 	movss  0x0(%rip),%xmm1        # 4be <MAIN__+0x4be>
 4bd:	00 
			4ba: R_X86_64_PC32	.rodata+0x5c
 4be:	f3 0f 59 ca          	mulss  %xmm2,%xmm1
 4c2:	f3 0f 5c c1          	subss  %xmm1,%xmm0
 4c6:	f3 0f 11 84 85 c0 fc 	movss  %xmm0,-0x340(%rbp,%rax,4)
 4cd:	ff ff 
 4cf:	48 83 c0 01          	add    $0x1,%rax
 4d3:	eb 9a                	jmp    46f <MAIN__+0x46f>
        h = h - diff(u * (hmean + h)) / dx * dt
 4d5:	48 c7 85 a0 f8 ff ff 	movq   $0x0,-0x760(%rbp)
 4dc:	00 00 00 00 
 4e0:	48 c7 85 a8 f8 ff ff 	movq   $0x0,-0x758(%rbp)
 4e7:	00 00 00 00 
 4eb:	48 c7 85 a0 f8 ff ff 	movq   $0x4,-0x760(%rbp)
 4f2:	04 00 00 00 
 4f6:	c6 85 ac f8 ff ff 01 	movb   $0x1,-0x754(%rbp)
 4fd:	c6 85 ad f8 ff ff 03 	movb   $0x3,-0x753(%rbp)
 504:	48 c7 85 b8 f8 ff ff 	movq   $0x1,-0x748(%rbp)
 50b:	01 00 00 00 
 50f:	48 c7 85 c0 f8 ff ff 	movq   $0x0,-0x740(%rbp)
 516:	00 00 00 00 
 51a:	48 c7 85 c8 f8 ff ff 	movq   $0x63,-0x738(%rbp)
 521:	63 00 00 00 
 525:	48 c7 85 b0 f8 ff ff 	movq   $0x4,-0x750(%rbp)
 52c:	04 00 00 00 
 530:	48 8d 85 10 f9 ff ff 	lea    -0x6f0(%rbp),%rax
 537:	48 89 85 90 f8 ff ff 	mov    %rax,-0x770(%rbp)
 53e:	48 c7 85 98 f8 ff ff 	movq   $0x0,-0x768(%rbp)
 545:	00 00 00 00 
 549:	b8 00 00 00 00       	mov    $0x0,%eax
 54e:	48 83 f8 63          	cmp    $0x63,%rax
 552:	7f 34                	jg     588 <MAIN__+0x588>
 554:	f3 0f 10 84 85 c0 fc 	movss  -0x340(%rbp,%rax,4),%xmm0
 55b:	ff ff 
 55d:	f3 0f 10 94 85 60 fe 	movss  -0x1a0(%rbp,%rax,4),%xmm2
 564:	ff ff 
 566:	f3 0f 10 0d 00 00 00 	movss  0x0(%rip),%xmm1        # 56e <MAIN__+0x56e>
 56d:	00 
			56a: R_X86_64_PC32	.rodata+0x60
 56e:	f3 0f 58 ca          	addss  %xmm2,%xmm1
 572:	48 8b 95 90 f8 ff ff 	mov    -0x770(%rbp),%rdx
 579:	f3 0f 59 c1          	mulss  %xmm1,%xmm0
 57d:	f3 0f 11 04 82       	movss  %xmm0,(%rdx,%rax,4)
 582:	48 83 c0 01          	add    $0x1,%rax
 586:	eb c6                	jmp    54e <MAIN__+0x54e>
 588:	48 8d 95 90 f8 ff ff 	lea    -0x770(%rbp),%rdx
 58f:	48 c7 85 e0 f8 ff ff 	movq   $0x0,-0x720(%rbp)
 596:	00 00 00 00 
 59a:	48 c7 85 e8 f8 ff ff 	movq   $0x0,-0x718(%rbp)
 5a1:	00 00 00 00 
 5a5:	48 c7 85 e0 f8 ff ff 	movq   $0x4,-0x720(%rbp)
 5ac:	04 00 00 00 
 5b0:	c6 85 ec f8 ff ff 01 	movb   $0x1,-0x714(%rbp)
 5b7:	c6 85 ed f8 ff ff 03 	movb   $0x3,-0x713(%rbp)
 5be:	48 c7 85 f8 f8 ff ff 	movq   $0x1,-0x708(%rbp)
 5c5:	01 00 00 00 
 5c9:	48 c7 85 00 f9 ff ff 	movq   $0x0,-0x700(%rbp)
 5d0:	00 00 00 00 
 5d4:	48 c7 85 08 f9 ff ff 	movq   $0x63,-0x6f8(%rbp)
 5db:	63 00 00 00 
 5df:	48 c7 85 f0 f8 ff ff 	movq   $0x4,-0x710(%rbp)
 5e6:	04 00 00 00 
 5ea:	48 8d 85 a0 fa ff ff 	lea    -0x560(%rbp),%rax
 5f1:	48 89 85 d0 f8 ff ff 	mov    %rax,-0x730(%rbp)
 5f8:	48 c7 85 d8 f8 ff ff 	movq   $0x0,-0x728(%rbp)
 5ff:	00 00 00 00 
 603:	48 8d 85 d0 f8 ff ff 	lea    -0x730(%rbp),%rax
 60a:	48 89 d6             	mov    %rdx,%rsi
 60d:	48 89 c7             	mov    %rax,%rdi
 610:	e8 00 00 00 00       	callq  615 <MAIN__+0x615>
			611: R_X86_64_PLT32	__mod_diff_MOD_diff_centered-0x4
 615:	b8 00 00 00 00       	mov    $0x0,%eax
 61a:	48 83 f8 63          	cmp    $0x63,%rax
 61e:	7f 34                	jg     654 <MAIN__+0x654>
 620:	f3 0f 10 84 85 60 fe 	movss  -0x1a0(%rbp,%rax,4),%xmm0
 627:	ff ff 
 629:	48 8b 95 d0 f8 ff ff 	mov    -0x730(%rbp),%rdx
 630:	f3 0f 10 14 82       	movss  (%rdx,%rax,4),%xmm2
 635:	f3 0f 10 0d 00 00 00 	movss  0x0(%rip),%xmm1        # 63d <MAIN__+0x63d>
 63c:	00 
			639: R_X86_64_PC32	.rodata+0x5c
 63d:	f3 0f 59 ca          	mulss  %xmm2,%xmm1
 641:	f3 0f 5c c1          	subss  %xmm1,%xmm0
 645:	f3 0f 11 84 85 60 fe 	movss  %xmm0,-0x1a0(%rbp,%rax,4)
 64c:	ff ff 
 64e:	48 83 c0 01          	add    $0x1,%rax
 652:	eb c6                	jmp    61a <MAIN__+0x61a>
        
        !print *, n, h
        
        inquire(file = 'data.txt', exist = file_exists)
 654:	48 8d 05 00 00 00 00 	lea    0x0(%rip),%rax        # 65b <MAIN__+0x65b>
			657: R_X86_64_PC32	.rodata-0x4
 65b:	48 89 85 a8 fa ff ff 	mov    %rax,-0x558(%rbp)
 662:	c7 85 b0 fa ff ff 2b 	movl   $0x2b,-0x550(%rbp)
 669:	00 00 00 
 66c:	48 8d 05 00 00 00 00 	lea    0x0(%rip),%rax        # 673 <MAIN__+0x673>
			66f: R_X86_64_PC32	.rodata+0x8
 673:	48 89 85 08 fb ff ff 	mov    %rax,-0x4f8(%rbp)
 67a:	48 c7 85 10 fb ff ff 	movq   $0x8,-0x4f0(%rbp)
 681:	08 00 00 00 
 685:	48 8d 45 fc          	lea    -0x4(%rbp),%rax
 689:	48 89 85 d0 fa ff ff 	mov    %rax,-0x530(%rbp)
 690:	c7 85 a0 fa ff ff 80 	movl   $0x4080,-0x560(%rbp)
 697:	40 00 00 
 69a:	c7 85 a4 fa ff ff 00 	movl   $0x0,-0x55c(%rbp)
 6a1:	00 00 00 
 6a4:	48 8d 85 a0 fa ff ff 	lea    -0x560(%rbp),%rax
 6ab:	48 89 c7             	mov    %rax,%rdi
 6ae:	e8 00 00 00 00       	callq  6b3 <MAIN__+0x6b3>
			6af: R_X86_64_PLT32	_gfortran_st_inquire-0x4
        if (file_exists) then
 6b3:	8b 45 fc             	mov    -0x4(%rbp),%eax
 6b6:	85 c0                	test   %eax,%eax
 6b8:	0f 84 ae 00 00 00    	je     76c <MAIN__+0x76c>
            open(9, file = 'data.txt', status = 'old', position = 'append', action = 'write')
 6be:	48 8d 05 00 00 00 00 	lea    0x0(%rip),%rax        # 6c5 <MAIN__+0x6c5>
			6c1: R_X86_64_PC32	.rodata-0x4
 6c5:	48 89 85 a8 fa ff ff 	mov    %rax,-0x558(%rbp)
 6cc:	c7 85 b0 fa ff ff 2d 	movl   $0x2d,-0x550(%rbp)
 6d3:	00 00 00 
 6d6:	48 8d 05 00 00 00 00 	lea    0x0(%rip),%rax        # 6dd <MAIN__+0x6dd>
			6d9: R_X86_64_PC32	.rodata+0x8
 6dd:	48 89 85 e0 fa ff ff 	mov    %rax,-0x520(%rbp)
 6e4:	48 c7 85 d8 fa ff ff 	movq   $0x8,-0x528(%rbp)
 6eb:	08 00 00 00 
 6ef:	48 8d 05 00 00 00 00 	lea    0x0(%rip),%rax        # 6f6 <MAIN__+0x6f6>
			6f2: R_X86_64_PC32	.rodata+0x1c
 6f6:	48 89 85 e8 fa ff ff 	mov    %rax,-0x518(%rbp)
 6fd:	48 c7 85 f0 fa ff ff 	movq   $0x3,-0x510(%rbp)
 704:	03 00 00 00 
 708:	48 8d 05 00 00 00 00 	lea    0x0(%rip),%rax        # 70f <MAIN__+0x70f>
			70b: R_X86_64_PC32	.rodata+0x1f
 70f:	48 89 85 28 fb ff ff 	mov    %rax,-0x4d8(%rbp)
 716:	48 c7 85 30 fb ff ff 	movq   $0x6,-0x4d0(%rbp)
 71d:	06 00 00 00 
 721:	48 8d 05 00 00 00 00 	lea    0x0(%rip),%rax        # 728 <MAIN__+0x728>
			724: R_X86_64_PC32	.rodata+0x25
 728:	48 89 85 40 fb ff ff 	mov    %rax,-0x4c0(%rbp)
 72f:	48 c7 85 38 fb ff ff 	movq   $0x5,-0x4c8(%rbp)
 736:	05 00 00 00 
 73a:	c7 85 d0 fb ff ff 00 	movl   $0x0,-0x430(%rbp)
 741:	00 00 00 
 744:	c7 85 a0 fa ff ff 00 	movl   $0x1006300,-0x560(%rbp)
 74b:	63 00 01 
 74e:	c7 85 a4 fa ff ff 09 	movl   $0x9,-0x55c(%rbp)
 755:	00 00 00 
 758:	48 8d 85 a0 fa ff ff 	lea    -0x560(%rbp),%rax
 75f:	48 89 c7             	mov    %rax,%rdi
 762:	e8 00 00 00 00       	callq  767 <MAIN__+0x767>
			763: R_X86_64_PLT32	_gfortran_st_open-0x4
 767:	e9 90 00 00 00       	jmpq   7fc <MAIN__+0x7fc>
        else
            open(9, file = 'data.txt', status = "new", action = 'write')
 76c:	48 8d 05 00 00 00 00 	lea    0x0(%rip),%rax        # 773 <MAIN__+0x773>
			76f: R_X86_64_PC32	.rodata-0x4
 773:	48 89 85 a8 fa ff ff 	mov    %rax,-0x558(%rbp)
 77a:	c7 85 b0 fa ff ff 2f 	movl   $0x2f,-0x550(%rbp)
 781:	00 00 00 
 784:	48 8d 05 00 00 00 00 	lea    0x0(%rip),%rax        # 78b <MAIN__+0x78b>
			787: R_X86_64_PC32	.rodata+0x8
 78b:	48 89 85 e0 fa ff ff 	mov    %rax,-0x520(%rbp)
 792:	48 c7 85 d8 fa ff ff 	movq   $0x8,-0x528(%rbp)
 799:	08 00 00 00 
 79d:	48 8d 05 00 00 00 00 	lea    0x0(%rip),%rax        # 7a4 <MAIN__+0x7a4>
			7a0: R_X86_64_PC32	.rodata+0x2a
 7a4:	48 89 85 e8 fa ff ff 	mov    %rax,-0x518(%rbp)
 7ab:	48 c7 85 f0 fa ff ff 	movq   $0x3,-0x510(%rbp)
 7b2:	03 00 00 00 
 7b6:	48 8d 05 00 00 00 00 	lea    0x0(%rip),%rax        # 7bd <MAIN__+0x7bd>
			7b9: R_X86_64_PC32	.rodata+0x25
 7bd:	48 89 85 40 fb ff ff 	mov    %rax,-0x4c0(%rbp)
 7c4:	48 c7 85 38 fb ff ff 	movq   $0x5,-0x4c8(%rbp)
 7cb:	05 00 00 00 
 7cf:	c7 85 d0 fb ff ff 00 	movl   $0x0,-0x430(%rbp)
 7d6:	00 00 00 
 7d9:	c7 85 a0 fa ff ff 00 	movl   $0x1004300,-0x560(%rbp)
 7e0:	43 00 01 
 7e3:	c7 85 a4 fa ff ff 09 	movl   $0x9,-0x55c(%rbp)
 7ea:	00 00 00 
 7ed:	48 8d 85 a0 fa ff ff 	lea    -0x560(%rbp),%rax
 7f4:	48 89 c7             	mov    %rax,%rdi
 7f7:	e8 00 00 00 00       	callq  7fc <MAIN__+0x7fc>
			7f8: R_X86_64_PLT32	_gfortran_st_open-0x4
        end if
        
        write (9, *) n, h
 7fc:	48 8d 05 00 00 00 00 	lea    0x0(%rip),%rax        # 803 <MAIN__+0x803>
			7ff: R_X86_64_PC32	.rodata-0x4
 803:	48 89 85 a8 fa ff ff 	mov    %rax,-0x558(%rbp)
 80a:	c7 85 b0 fa ff ff 32 	movl   $0x32,-0x550(%rbp)
 811:	00 00 00 
 814:	c7 85 a0 fa ff ff 80 	movl   $0x80,-0x560(%rbp)
 81b:	00 00 00 
 81e:	c7 85 a4 fa ff ff 09 	movl   $0x9,-0x55c(%rbp)
 825:	00 00 00 
 828:	48 8d 85 a0 fa ff ff 	lea    -0x560(%rbp),%rax
 82f:	48 89 c7             	mov    %rax,%rdi
 832:	e8 00 00 00 00       	callq  837 <MAIN__+0x837>
			833: R_X86_64_PLT32	_gfortran_st_write-0x4
 837:	48 8d 8d 5c fe ff ff 	lea    -0x1a4(%rbp),%rcx
 83e:	48 8d 85 a0 fa ff ff 	lea    -0x560(%rbp),%rax
 845:	ba 04 00 00 00       	mov    $0x4,%edx
 84a:	48 89 ce             	mov    %rcx,%rsi
 84d:	48 89 c7             	mov    %rax,%rdi
 850:	e8 00 00 00 00       	callq  855 <MAIN__+0x855>
			851: R_X86_64_PLT32	_gfortran_transfer_integer_write-0x4
 855:	48 c7 85 30 f9 ff ff 	movq   $0x4,-0x6d0(%rbp)
 85c:	04 00 00 00 
 860:	48 c7 85 20 f9 ff ff 	movq   $0x0,-0x6e0(%rbp)
 867:	00 00 00 00 
 86b:	48 c7 85 28 f9 ff ff 	movq   $0x0,-0x6d8(%rbp)
 872:	00 00 00 00 
 876:	48 c7 85 20 f9 ff ff 	movq   $0x4,-0x6e0(%rbp)
 87d:	04 00 00 00 
 881:	c6 85 2c f9 ff ff 01 	movb   $0x1,-0x6d4(%rbp)
 888:	c6 85 2d f9 ff ff 03 	movb   $0x3,-0x6d3(%rbp)
 88f:	48 c7 85 40 f9 ff ff 	movq   $0x1,-0x6c0(%rbp)
 896:	01 00 00 00 
 89a:	48 c7 85 48 f9 ff ff 	movq   $0x64,-0x6b8(%rbp)
 8a1:	64 00 00 00 
 8a5:	48 c7 85 38 f9 ff ff 	movq   $0x1,-0x6c8(%rbp)
 8ac:	01 00 00 00 
 8b0:	48 8d 85 60 fe ff ff 	lea    -0x1a0(%rbp),%rax
 8b7:	48 89 85 10 f9 ff ff 	mov    %rax,-0x6f0(%rbp)
 8be:	48 c7 85 18 f9 ff ff 	movq   $0xffffffffffffffff,-0x6e8(%rbp)
 8c5:	ff ff ff ff 
 8c9:	48 8d b5 10 f9 ff ff 	lea    -0x6f0(%rbp),%rsi
 8d0:	48 8d 85 a0 fa ff ff 	lea    -0x560(%rbp),%rax
 8d7:	b9 00 00 00 00       	mov    $0x0,%ecx
 8dc:	ba 04 00 00 00       	mov    $0x4,%edx
 8e1:	48 89 c7             	mov    %rax,%rdi
 8e4:	e8 00 00 00 00       	callq  8e9 <MAIN__+0x8e9>
			8e5: R_X86_64_PLT32	_gfortran_transfer_array_write-0x4
 8e9:	48 8d 85 a0 fa ff ff 	lea    -0x560(%rbp),%rax
 8f0:	48 89 c7             	mov    %rax,%rdi
 8f3:	e8 00 00 00 00       	callq  8f8 <MAIN__+0x8f8>
			8f4: R_X86_64_PLT32	_gfortran_st_write_done-0x4
    time_loop: do n = 1, num_time_steps
 8f8:	8b 85 5c fe ff ff    	mov    -0x1a4(%rbp),%eax
 8fe:	83 c0 01             	add    $0x1,%eax
 901:	89 85 5c fe ff ff    	mov    %eax,-0x1a4(%rbp)
 907:	e9 43 f9 ff ff       	jmpq   24f <MAIN__+0x24f>
        write (9, *) n, h
 90c:	90                   	nop

    end do time_loop
     
    close(9)
 90d:	48 8d 05 00 00 00 00 	lea    0x0(%rip),%rax        # 914 <MAIN__+0x914>
			910: R_X86_64_PC32	.rodata-0x4
 914:	48 89 85 a8 fa ff ff 	mov    %rax,-0x558(%rbp)
 91b:	c7 85 b0 fa ff ff 36 	movl   $0x36,-0x550(%rbp)
 922:	00 00 00 
 925:	c7 85 a0 fa ff ff 00 	movl   $0x0,-0x560(%rbp)
 92c:	00 00 00 
 92f:	c7 85 a4 fa ff ff 09 	movl   $0x9,-0x55c(%rbp)
 936:	00 00 00 
 939:	48 8d 85 a0 fa ff ff 	lea    -0x560(%rbp),%rax
 940:	48 89 c7             	mov    %rax,%rdi
 943:	e8 00 00 00 00       	callq  948 <MAIN__+0x948>
			944: R_X86_64_PLT32	_gfortran_st_close-0x4
    
end program tsunami
 948:	90                   	nop
 949:	c9                   	leaveq 
 94a:	c3                   	retq   

000000000000094b <main>:
    use mod_diff, only        : diff => diff_centered
 94b:	55                   	push   %rbp
 94c:	48 89 e5             	mov    %rsp,%rbp
 94f:	48 83 ec 10          	sub    $0x10,%rsp
 953:	89 7d fc             	mov    %edi,-0x4(%rbp)
 956:	48 89 75 f0          	mov    %rsi,-0x10(%rbp)
 95a:	48 8b 55 f0          	mov    -0x10(%rbp),%rdx
 95e:	8b 45 fc             	mov    -0x4(%rbp),%eax
 961:	48 89 d6             	mov    %rdx,%rsi
 964:	89 c7                	mov    %eax,%edi
 966:	e8 00 00 00 00       	callq  96b <main+0x20>
			967: R_X86_64_PLT32	_gfortran_set_args-0x4
 96b:	48 8d 35 00 00 00 00 	lea    0x0(%rip),%rsi        # 972 <main+0x27>
			96e: R_X86_64_PC32	.rodata+0x3c
 972:	bf 07 00 00 00       	mov    $0x7,%edi
 977:	e8 00 00 00 00       	callq  97c <main+0x31>
			978: R_X86_64_PLT32	_gfortran_set_options-0x4
 97c:	e8 7f f6 ff ff       	callq  0 <MAIN__>
 981:	b8 00 00 00 00       	mov    $0x0,%eax
 986:	c9                   	leaveq 
 987:	c3                   	retq   
